target datalayout = "e-m:e-p270:32:32-p271:32:32-p272:64:64-i64:64-i128:128-f80:128-n8:16:32:64-S128"
target triple = "x86_64-unknown-linux-gnu"

; Function Attrs: mustprogress uwtable
define noundef ptr @_ZN6Assimp6Intern22AllocateFromAssimpHeapnwEm(i64 noundef %num_bytes) #2 align 2 {
entry:
  %num_bytes.addr = alloca i64, align 8
  store i64 %num_bytes, ptr %num_bytes.addr, align 8
  %0 = load i64, ptr %num_bytes.addr, align 8
  %call = call noalias noundef nonnull ptr @_Znwm(i64 noundef %0) #16
  ret ptr %call
}

; Function Attrs: mustprogress nounwind uwtable
define noundef ptr @_ZN6Assimp6Intern22AllocateFromAssimpHeapnwEmRKSt9nothrow_t(i64 noundef %num_bytes, ptr noundef nonnull align 1 dereferenceable(1) %0) #0 align 2 personality ptr @__gxx_personality_v0 {
entry:
  %retval = alloca ptr, align 8
  %num_bytes.addr = alloca i64, align 8
  %.addr = alloca ptr, align 8
  %exn.slot = alloca ptr, align 8
  %ehselector.slot = alloca i32, align 4
  store i64 %num_bytes, ptr %num_bytes.addr, align 8
  store ptr %0, ptr %.addr, align 8
  %1 = load i64, ptr %num_bytes.addr, align 8
  %call = invoke noundef ptr @_ZN6Assimp6Intern22AllocateFromAssimpHeapnwEm(i64 noundef %1)
          to label %invoke.cont unwind label %lpad

invoke.cont:                                      ; preds = %entry
  store ptr %call, ptr %retval, align 8
  br label %return

lpad:                                             ; preds = %entry
  %2 = landingpad { ptr, i32 }
          catch ptr null
  %3 = extractvalue { ptr, i32 } %2, 0
  store ptr %3, ptr %exn.slot, align 8
  %4 = extractvalue { ptr, i32 } %2, 1
  store i32 %4, ptr %ehselector.slot, align 4
  br label %catch

catch:                                            ; preds = %lpad
  %exn = load ptr, ptr %exn.slot, align 8
  %5 = call ptr @__cxa_begin_catch(ptr %exn) #14
  store ptr null, ptr %retval, align 8
  invoke void @__cxa_end_catch()
          to label %invoke.cont1 unwind label %terminate.lpad

invoke.cont1:                                     ; preds = %catch
  br label %return

try.cont:                                         ; No predecessors!
  call void @llvm.trap()
  unreachable

return:                                           ; preds = %invoke.cont1, %invoke.cont
  %6 = load ptr, ptr %retval, align 8
  ret ptr %6

terminate.lpad:                                   ; preds = %catch
  %7 = landingpad { ptr, i32 }
          catch ptr null
  %8 = extractvalue { ptr, i32 } %7, 0
  call void @__clang_call_terminate(ptr %8) #15
  unreachable
}